target datalayout = "e-m:e-p270:32:32-p271:32:32-p272:64:64-i64:64-i128:128-f80:128-n8:16:32:64-S128"
target triple = "x86_64-pc-linux-gnu"

%struct.__sigset_t = type { [16 x i64] }
%struct.rb_execution_context_struct = type { ptr, i64, ptr, ptr, i32, i32, ptr, ptr, ptr, i64, i64, i64, ptr, i64, ptr, i64, i64, i8, i8, i64, %struct.anon.12 }
%struct.anon.12 = type { ptr, ptr, i64, [1 x %struct.__jmp_buf_tag] }
%struct.__jmp_buf_tag = type { [8 x i64], i32, %struct.__sigset_t }
%struct.ccan_list_head = type { %struct.ccan_list_node }
%struct.ccan_list_node = type { ptr, ptr }
%struct.rb_objspace = type { %struct.anon.33, %struct.rb_gc_config, [3 x i8], %struct.anon.19, i32, i64, [5 x %struct.rb_heap_struct], i64, ptr, %struct.anon.34, %struct.mark_stack, i64, %struct.anon.35, ptr, %struct.anon.36, i64, %struct.anon.37, %struct.anon.38, %struct.anon.39, ptr, ptr, i64, ptr, i32, i64 }
%struct.anon.33 = type { i64, i64 }
%struct.rb_gc_config = type { i8 }
%struct.anon.19 = type { i16, [2 x i8] }
%struct.rb_heap_struct = type { i16, i64, i64, i64, i64, i64, i64, i64, i64, ptr, %struct.ccan_list_head, ptr, ptr, i64, ptr, i64, i64 }
%struct.anon.34 = type { i32 }
%struct.mark_stack = type { ptr, ptr, i32, i32, i64, i64 }
%struct.anon.35 = type { ptr, i64, i64, [2 x i64], i64, i64, i64 }
%struct.anon.36 = type { i32, i32, ptr, ptr, i64, i64, double, i64, i64, i64, i64, double, i64, i64, i64, i64, %struct.timespec, i64, %struct.timespec, i64, i64 }
%struct.timespec = type { i64, i64 }
%struct.anon.37 = type { i64, i32, i64, i64, i64, i64, i64, i64, i64 }
%struct.anon.38 = type { [31 x i64], [31 x i64], [31 x i64], [31 x i64], i64, ptr }
%struct.anon.39 = type { i64, i64 }

@.str = private unnamed_addr constant [8 x i8] c"../gc.c\00", align 1
@ruby_single_main_ractor = external global ptr, align 8
@ruby_current_ec = external thread_local global ptr, align 8

; Function Attrs: inlinehint nounwind sspstrong uwtable
define internal ptr @rb_current_execution_context(i1 noundef zeroext %0) #2 {
  %2 = alloca i8, align 1
  %3 = alloca ptr, align 8
  %4 = zext i1 %0 to i8
  store i8 %4, ptr %2, align 1, !tbaa !41
  call void @llvm.lifetime.start.p0(i64 8, ptr %3) #6
  %5 = call align 8 ptr @llvm.threadlocal.address.p0(ptr align 8 @ruby_current_ec)
  %6 = load ptr, ptr %5, align 8, !tbaa !20
  store ptr %6, ptr %3, align 8, !tbaa !20
  %7 = load ptr, ptr %3, align 8, !tbaa !20
  call void @llvm.lifetime.end.p0(i64 8, ptr %3) #6
  ret ptr %7
}

; Function Attrs: inlinehint nounwind sspstrong uwtable
define internal zeroext i1 @rb_multi_ractor_p() #2 {
  %1 = alloca i1, align 1
  %2 = load ptr, ptr @ruby_single_main_ractor, align 8, !tbaa !16
  %3 = icmp ne ptr %2, null
  %4 = xor i1 %3, true
  %5 = xor i1 %4, true
  %6 = zext i1 %5 to i32
  %7 = sext i32 %6 to i64
  %8 = call i64 @llvm.expect.i64(i64 %7, i64 1)
  %9 = icmp ne i64 %8, 0
  br i1 %9, label %10, label %11

10:                                               ; preds = %0
  store i1 false, ptr %1, align 1
  br label %12

11:                                               ; preds = %0
  store i1 true, ptr %1, align 1
  br label %12

12:                                               ; preds = %11, %10
  %13 = load i1, ptr %1, align 1
  ret i1 %13
}

; Function Attrs: nounwind sspstrong uwtable
define dso_local void @rb_gc_unset_pending_interrupt() #0 {
  %1 = alloca ptr, align 8
  call void @llvm.lifetime.start.p0(i64 8, ptr %1) #6
  %2 = call ptr @rb_current_execution_context(i1 noundef zeroext true)
  store ptr %2, ptr %1, align 8, !tbaa !20
  %3 = load ptr, ptr %1, align 8, !tbaa !20
  %4 = getelementptr inbounds nuw %struct.rb_execution_context_struct, ptr %3, i32 0, i32 5
  %5 = load i32, ptr %4, align 4, !tbaa !110
  %6 = and i32 %5, -3
  store i32 %6, ptr %4, align 4, !tbaa !110
  call void @llvm.lifetime.end.p0(i64 8, ptr %1) #6
  ret void
}

; Function Attrs: nounwind sspstrong uwtable
define dso_local void @rb_gc_set_pending_interrupt() #0 {
  %1 = alloca ptr, align 8
  call void @llvm.lifetime.start.p0(i64 8, ptr %1) #6
  %2 = call ptr @rb_current_execution_context(i1 noundef zeroext true)
  store ptr %2, ptr %1, align 8, !tbaa !20
  %3 = load ptr, ptr %1, align 8, !tbaa !20
  %4 = getelementptr inbounds nuw %struct.rb_execution_context_struct, ptr %3, i32 0, i32 5
  %5 = load i32, ptr %4, align 4, !tbaa !110
  %6 = or i32 %5, 2
  store i32 %6, ptr %4, align 4, !tbaa !110
  call void @llvm.lifetime.end.p0(i64 8, ptr %1) #6
  ret void
}

; Function Attrs: inlinehint nounwind sspstrong uwtable
define internal void @rb_vm_lock_leave(ptr noundef %0, ptr noundef %1, i32 noundef %2) #2 {
  %4 = alloca ptr, align 8
  %5 = alloca ptr, align 8
  %6 = alloca i32, align 4
  store ptr %0, ptr %4, align 8, !tbaa !11
  store ptr %1, ptr %5, align 8, !tbaa !14
  store i32 %2, ptr %6, align 4, !tbaa !7
  %7 = call zeroext i1 @rb_multi_ractor_p()
  br i1 %7, label %8, label %10

8:                                                ; preds = %3
  %9 = load ptr, ptr %4, align 8, !tbaa !11
  call void @rb_vm_lock_leave_body(ptr noundef %9)
  br label %10

10:                                               ; preds = %8, %3
  ret void
}

; Function Attrs: inlinehint nounwind sspstrong uwtable
define internal void @rb_vm_lock_enter(ptr noundef %0, ptr noundef %1, i32 noundef %2) #2 {
  %4 = alloca ptr, align 8
  %5 = alloca ptr, align 8
  %6 = alloca i32, align 4
  store ptr %0, ptr %4, align 8, !tbaa !11
  store ptr %1, ptr %5, align 8, !tbaa !14
  store i32 %2, ptr %6, align 4, !tbaa !7
  %7 = call zeroext i1 @rb_multi_ractor_p()
  br i1 %7, label %8, label %10

8:                                                ; preds = %3
  %9 = load ptr, ptr %4, align 8, !tbaa !11
  call void @rb_vm_lock_enter_body(ptr noundef %9)
  br label %10

10:                                               ; preds = %8, %3
  ret void
}

; Function Attrs: inlinehint nounwind sspstrong memory(argmem: readwrite, inaccessiblemem: readwrite) uwtable
define internal void @rbimpl_atomic_set(ptr noundef nonnull %0, i32 noundef %1) #34 {
  %3 = alloca ptr, align 8
  %4 = alloca i32, align 4
  %5 = alloca i32, align 4
  store ptr %0, ptr %3, align 8, !tbaa !11
  store i32 %1, ptr %4, align 4, !tbaa !7
  %6 = load ptr, ptr %3, align 8, !tbaa !11
  %7 = load i32, ptr %4, align 4, !tbaa !7
  store i32 %7, ptr %5, align 4, !tbaa !7
  %8 = load i32, ptr %5, align 4
  store atomic volatile i32 %8, ptr %6 seq_cst, align 4
  ret void
}

; Function Attrs: nounwind sspstrong uwtable
define internal void @finalize_deferred(ptr noundef %0) #0 {
  %2 = alloca ptr, align 8
  store ptr %0, ptr %2, align 8, !tbaa !125
  call void @rb_gc_set_pending_interrupt()
  %3 = load ptr, ptr %2, align 8, !tbaa !125
  call void @finalize_deferred_heap_pages(ptr noundef %3)
  call void @rb_gc_unset_pending_interrupt()
  ret void
}

; Function Attrs: inlinehint nounwind sspstrong memory(argmem: readwrite, inaccessiblemem: readwrite) uwtable
define internal i32 @rbimpl_atomic_exchange(ptr noundef nonnull %0, i32 noundef %1) #34 {
  %3 = alloca ptr, align 8
  %4 = alloca i32, align 4
  %5 = alloca i32, align 4
  %6 = alloca i32, align 4
  store ptr %0, ptr %3, align 8, !tbaa !11
  store i32 %1, ptr %4, align 4, !tbaa !7
  %7 = load ptr, ptr %3, align 8, !tbaa !11
  %8 = load i32, ptr %4, align 4, !tbaa !7
  store i32 %8, ptr %5, align 4, !tbaa !7
  %9 = load i32, ptr %5, align 4
  %10 = atomicrmw volatile xchg ptr %7, i32 %9 seq_cst, align 4
  store i32 %10, ptr %6, align 4
  %11 = load i32, ptr %6, align 4, !tbaa !7
  ret i32 %11
}

; Function Attrs: nounwind sspstrong uwtable
define dso_local void @rb_gc_vm_unlock(i32 noundef %0) #0 {
  %2 = alloca i32, align 4
  store i32 %0, ptr %2, align 4, !tbaa !7
  call void @rb_vm_lock_leave(ptr noundef %2, ptr noundef @.str, i32 noundef 144)
  ret void
}

; Function Attrs: nounwind sspstrong uwtable
define dso_local i32 @rb_gc_vm_lock() #0 {
  %1 = alloca i32, align 4
  call void @llvm.lifetime.start.p0(i64 4, ptr %1) #6
  call void @rb_vm_lock_enter(ptr noundef %1, ptr noundef @.str, i32 noundef 137)
  %2 = load i32, ptr %1, align 4, !tbaa !7
  call void @llvm.lifetime.end.p0(i64 4, ptr %1) #6
  ret i32 %2
}

; Function Attrs: nounwind sspstrong uwtable
define internal void @gc_finalize_deferred(ptr noundef %0) #0 {
  %2 = alloca ptr, align 8
  %3 = alloca ptr, align 8
  %4 = alloca i32, align 4
  store ptr %0, ptr %2, align 8, !tbaa !76
  call void @llvm.lifetime.start.p0(i64 8, ptr %3) #6
  %5 = load ptr, ptr %2, align 8, !tbaa !76
  store ptr %5, ptr %3, align 8, !tbaa !125
  %6 = load ptr, ptr %3, align 8, !tbaa !125
  %7 = getelementptr inbounds nuw %struct.rb_objspace, ptr %6, i32 0, i32 9
  %8 = getelementptr inbounds nuw %struct.anon.34, ptr %7, i32 0, i32 0
  %9 = call i32 @rbimpl_atomic_exchange(ptr noundef %8, i32 noundef 1) #48
  %10 = icmp ne i32 %9, 0
  br i1 %10, label %11, label %12

11:                                               ; preds = %1
  store i32 1, ptr %4, align 4
  br label %17

12:                                               ; preds = %1
  %13 = load ptr, ptr %3, align 8, !tbaa !125
  call void @finalize_deferred(ptr noundef %13)
  %14 = load ptr, ptr %3, align 8, !tbaa !125
  %15 = getelementptr inbounds nuw %struct.rb_objspace, ptr %14, i32 0, i32 9
  %16 = getelementptr inbounds nuw %struct.anon.34, ptr %15, i32 0, i32 0
  call void @rbimpl_atomic_set(ptr noundef %16, i32 noundef 0) #48
  store i32 0, ptr %4, align 4
  br label %17

17:                                               ; preds = %12, %11
  call void @llvm.lifetime.end.p0(i64 8, ptr %3) #6
  %18 = load i32, ptr %4, align 4
  switch i32 %18, label %20 [
    i32 0, label %19
    i32 1, label %19
  ]

19:                                               ; preds = %17, %17
  ret void

20:                                               ; preds = %17
  unreachable
}

; Function Attrs: nounwind sspstrong uwtable
define internal i32 @garbage_collect(ptr noundef %0, i32 noundef %1) #0 {
  %3 = alloca ptr, align 8
  %4 = alloca i32, align 4
  %5 = alloca i32, align 4
  %6 = alloca i32, align 4
  store ptr %0, ptr %3, align 8, !tbaa !125
  store i32 %1, ptr %4, align 4, !tbaa !7
  call void @llvm.lifetime.start.p0(i64 4, ptr %5) #6
  call void @llvm.lifetime.start.p0(i64 4, ptr %6) #6
  %7 = call i32 @rb_gc_vm_lock()
  store i32 %7, ptr %6, align 4, !tbaa !7
  %8 = load ptr, ptr %3, align 8, !tbaa !125
  call void @gc_rest(ptr noundef %8)
  %9 = load ptr, ptr %3, align 8, !tbaa !125
  %10 = load i32, ptr %4, align 4, !tbaa !7
  %11 = call i32 @gc_start(ptr noundef %9, i32 noundef %10)
  store i32 %11, ptr %5, align 4, !tbaa !7
  %12 = load i32, ptr %6, align 4, !tbaa !7
  call void @rb_gc_vm_unlock(i32 noundef %12)
  %13 = load i32, ptr %5, align 4, !tbaa !7
  call void @llvm.lifetime.end.p0(i64 4, ptr %6) #6
  call void @llvm.lifetime.end.p0(i64 4, ptr %5) #6
  ret i32 %13
}

; Function Attrs: nounwind sspstrong uwtable
define internal void @rb_gc_impl_start(ptr noundef %0, i1 noundef zeroext %1, i1 noundef zeroext %2, i1 noundef zeroext %3, i1 noundef zeroext %4) #0 {
  %6 = alloca ptr, align 8
  %7 = alloca i8, align 1
  %8 = alloca i8, align 1
  %9 = alloca i8, align 1
  %10 = alloca i8, align 1
  %11 = alloca ptr, align 8
  %12 = alloca i32, align 4
  %13 = alloca i32, align 4
  store ptr %0, ptr %6, align 8, !tbaa !76
  %14 = zext i1 %1 to i8
  store i8 %14, ptr %7, align 1, !tbaa !41
  %15 = zext i1 %2 to i8
  store i8 %15, ptr %8, align 1, !tbaa !41
  %16 = zext i1 %3 to i8
  store i8 %16, ptr %9, align 1, !tbaa !41
  %17 = zext i1 %4 to i8
  store i8 %17, ptr %10, align 1, !tbaa !41
  call void @llvm.lifetime.start.p0(i64 8, ptr %11) #6
  %18 = load ptr, ptr %6, align 8, !tbaa !76
  store ptr %18, ptr %11, align 8, !tbaa !125
  call void @llvm.lifetime.start.p0(i64 4, ptr %12) #6
  store i32 107520, ptr %12, align 4, !tbaa !7
  call void @llvm.lifetime.start.p0(i64 4, ptr %13) #6
  %19 = load ptr, ptr %11, align 8, !tbaa !125
  %20 = getelementptr inbounds nuw %struct.rb_objspace, ptr %19, i32 0, i32 1
  %21 = getelementptr inbounds nuw %struct.rb_gc_config, ptr %20, i32 0, i32 0
  %22 = load i8, ptr %21, align 8, !tbaa !126, !range !122, !noundef !123
  %23 = trunc i8 %22 to i1
  %24 = zext i1 %23 to i32
  store i32 %24, ptr %13, align 4, !tbaa !7
  %25 = load ptr, ptr %11, align 8, !tbaa !125
  %26 = getelementptr inbounds nuw %struct.rb_objspace, ptr %25, i32 0, i32 1
  %27 = getelementptr inbounds nuw %struct.rb_gc_config, ptr %26, i32 0, i32 0
  store i8 1, ptr %27, align 8, !tbaa !126
  %28 = load i8, ptr %10, align 1, !tbaa !41, !range !122, !noundef !123
  %29 = trunc i8 %28 to i1
  br i1 %29, label %30, label %33

30:                                               ; preds = %5
  %31 = load i32, ptr %12, align 4, !tbaa !7
  %32 = or i32 %31, 131072
  store i32 %32, ptr %12, align 4, !tbaa !7
  br label %52

33:                                               ; preds = %5
  %34 = load i8, ptr %7, align 1, !tbaa !41, !range !122, !noundef !123
  %35 = trunc i8 %34 to i1
  br i1 %35, label %39, label %36

36:                                               ; preds = %33
  %37 = load i32, ptr %12, align 4, !tbaa !7
  %38 = and i32 %37, -65537
  store i32 %38, ptr %12, align 4, !tbaa !7
  br label %39

39:                                               ; preds = %36, %33
  %40 = load i8, ptr %8, align 1, !tbaa !41, !range !122, !noundef !123
  %41 = trunc i8 %40 to i1
  br i1 %41, label %45, label %42

42:                                               ; preds = %39
  %43 = load i32, ptr %12, align 4, !tbaa !7
  %44 = and i32 %43, -32769
  store i32 %44, ptr %12, align 4, !tbaa !7
  br label %45

45:                                               ; preds = %42, %39
  %46 = load i8, ptr %9, align 1, !tbaa !41, !range !122, !noundef !123
  %47 = trunc i8 %46 to i1
  br i1 %47, label %51, label %48

48:                                               ; preds = %45
  %49 = load i32, ptr %12, align 4, !tbaa !7
  %50 = and i32 %49, -8193
  store i32 %50, ptr %12, align 4, !tbaa !7
  br label %51

51:                                               ; preds = %48, %45
  br label %52

52:                                               ; preds = %51, %30
  %53 = load ptr, ptr %11, align 8, !tbaa !125
  %54 = load i32, ptr %12, align 4, !tbaa !7
  %55 = call i32 @garbage_collect(ptr noundef %53, i32 noundef %54)
  %56 = load ptr, ptr %11, align 8, !tbaa !125
  call void @gc_finalize_deferred(ptr noundef %56)
  %57 = load i32, ptr %13, align 4, !tbaa !7
  %58 = icmp ne i32 %57, 0
  %59 = load ptr, ptr %11, align 8, !tbaa !125
  %60 = getelementptr inbounds nuw %struct.rb_objspace, ptr %59, i32 0, i32 1
  %61 = getelementptr inbounds nuw %struct.rb_gc_config, ptr %60, i32 0, i32 0
  %62 = zext i1 %58 to i8
  store i8 %62, ptr %61, align 8, !tbaa !126
  call void @llvm.lifetime.end.p0(i64 4, ptr %13) #6
  call void @llvm.lifetime.end.p0(i64 4, ptr %12) #6
  call void @llvm.lifetime.end.p0(i64 8, ptr %11) #6
  ret void
}