; Function Attrs: nounwind sspstrong uwtable
define internal fastcc void @rb_gc_impl_start(ptr noundef %0, i1 noundef zeroext %1, i1 noundef zeroext %2, i1 noundef zeroext %3, i1 noundef zeroext %4) unnamed_addr #0 {
  %6 = alloca i32, align 4
  %7 = alloca i32, align 4
  %8 = getelementptr inbounds nuw i8, ptr %0, i64 16
  %9 = load i8, ptr %8, align 8, !tbaa !120, !range !302, !noundef !47
  store i8 1, ptr %8, align 8, !tbaa !120
  br i1 %4, label %13, label %10

10:                                               ; preds = %5
  %spec.select = select i1 %1, i32 107520, i32 41984
  %11 = and i32 %spec.select, 74752
  %.2 = select i1 %2, i32 %spec.select, i32 %11
  %12 = and i32 %.2, 99328
  %spec.select15 = select i1 %3, i32 %.2, i32 %12
  br label %13

13:                                               ; preds = %10, %5
  %.0 = phi i32 [ 238592, %5 ], [ %spec.select15, %10 ]
  call void @llvm.lifetime.start.p0(i64 4, ptr nonnull %7) #7
  %14 = load ptr, ptr @ruby_single_main_ractor, align 8, !tbaa !7
  %.not.i.i.i.i = icmp eq ptr %14, null
  br i1 %.not.i.i.i.i, label %15, label %rb_gc_vm_lock.exit.i

15:                                               ; preds = %13
  call void @rb_vm_lock_enter_body(ptr noundef nonnull %7) #7
  %.pre.i.i = load i32, ptr %7, align 4, !tbaa !12
  br label %rb_gc_vm_lock.exit.i

rb_gc_vm_lock.exit.i:                             ; preds = %15, %13
  %16 = phi i32 [ undef, %13 ], [ %.pre.i.i, %15 ]
  call void @llvm.lifetime.end.p0(i64 4, ptr nonnull %7) #7
  call fastcc void @gc_rest(ptr noundef nonnull %0)
  call fastcc void @gc_start(ptr noundef nonnull %0, i32 noundef %.0)
  call void @llvm.lifetime.start.p0(i64 4, ptr nonnull %6)
  store i32 %16, ptr %6, align 4, !tbaa !12
  %17 = load ptr, ptr @ruby_single_main_ractor, align 8, !tbaa !7
  %.not.i.i.i4.i = icmp eq ptr %17, null
  br i1 %.not.i.i.i4.i, label %18, label %garbage_collect.exit

18:                                               ; preds = %rb_gc_vm_lock.exit.i
  call void @rb_vm_lock_leave_body(ptr noundef nonnull %6) #7
  br label %garbage_collect.exit

garbage_collect.exit:                             ; preds = %rb_gc_vm_lock.exit.i, %18
  call void @llvm.lifetime.end.p0(i64 4, ptr nonnull %6)
  %19 = getelementptr inbounds nuw i8, ptr %0, i64 776
  %20 = atomicrmw volatile xchg ptr %19, i32 1 seq_cst, align 4
  %.not.i = icmp eq i32 %20, 0
  br i1 %.not.i, label %21, label %gc_finalize_deferred.exit

21:                                               ; preds = %garbage_collect.exit
  %22 = call align 8 ptr @llvm.threadlocal.address.p0(ptr align 8 @ruby_current_ec)
  %23 = load ptr, ptr %22, align 8, !tbaa !14
  %24 = getelementptr inbounds nuw i8, ptr %23, i64 36
  %25 = load i32, ptr %24, align 4, !tbaa !112
  %26 = or i32 %25, 2
  store i32 %26, ptr %24, align 4, !tbaa !112
  call fastcc void @finalize_deferred_heap_pages(ptr noundef nonnull %0)
  %27 = load ptr, ptr %22, align 8, !tbaa !14
  %28 = getelementptr inbounds nuw i8, ptr %27, i64 36
  %29 = load i32, ptr %28, align 4, !tbaa !112
  %30 = and i32 %29, -3
  store i32 %30, ptr %28, align 4, !tbaa !112
  store atomic volatile i32 0, ptr %19 seq_cst, align 4
  br label %gc_finalize_deferred.exit

gc_finalize_deferred.exit:                        ; preds = %garbage_collect.exit, %21
  store i8 %9, ptr %8, align 8, !tbaa !120
  ret void
}